; Function Attrs: mustprogress uwtable
define void @_ZN6GLArea13keyPressEventEP9QKeyEvent(ptr noundef nonnull align 8 dereferenceable(1676) %0, ptr noundef %1) unnamed_addr #9 align 2 {
  tail call void @_ZN9QGLWidget11makeCurrentEv(ptr noundef nonnull align 8 dereferenceable(48) %0)
  %3 = getelementptr inbounds i8, ptr %1, i64 18
  %4 = load i16, ptr %3, align 2
  %5 = and i16 %4, -5
  store i16 %5, ptr %3, align 2
  %6 = getelementptr inbounds i8, ptr %0, i64 1456
  %7 = load ptr, ptr %6, align 8
  %.not = icmp eq ptr %7, null
  br i1 %.not, label %19, label %8

8:                                                ; preds = %2
  %9 = getelementptr inbounds i8, ptr %0, i64 1353
  %10 = load i8, ptr %9, align 1
  %11 = and i8 %10, 1
  %.not6 = icmp eq i8 %11, 0
  br i1 %.not6, label %_ZN6GLArea2mmEv.exit, label %19

_ZN6GLArea2mmEv.exit:                             ; preds = %8
  %12 = getelementptr inbounds i8, ptr %0, i64 56
  %13 = load ptr, ptr %12, align 8, !nonnull !15, !noundef !15
  %14 = getelementptr inbounds i8, ptr %13, i64 48
  %15 = tail call noundef ptr @_ZN12MeshDocument2mmEv(ptr noundef nonnull align 8 dereferenceable(192) %14)
  %16 = load ptr, ptr %7, align 8
  %17 = getelementptr inbounds i8, ptr %16, i64 120
  %18 = load ptr, ptr %17, align 8
  tail call void %18(ptr noundef nonnull align 8 dereferenceable(16) %7, ptr noundef nonnull %1, ptr noundef nonnull align 8 dereferenceable(1288) %15, ptr noundef nonnull %0)
  br label %35

19:                                               ; preds = %8, %2
  %20 = getelementptr inbounds i8, ptr %1, i64 40
  %21 = load i32, ptr %20, align 8
  %22 = icmp eq i32 %21, 16777249
  br i1 %22, label %23, label %25

23:                                               ; preds = %19
  %24 = getelementptr inbounds i8, ptr %0, i64 64
  tail call void @_ZN3vcg9Trackball10ButtonDownENS0_6ButtonEj(ptr noundef nonnull align 8 dereferenceable(597) %24, i32 noundef 32, i32 noundef 0)
  %.pr = load i32, ptr %20, align 8
  br label %25

25:                                               ; preds = %23, %19
  %26 = phi i32 [ %.pr, %23 ], [ %21, %19 ]
  %27 = icmp eq i32 %26, 16777248
  br i1 %27, label %28, label %30

28:                                               ; preds = %25
  %29 = getelementptr inbounds i8, ptr %0, i64 64
  tail call void @_ZN3vcg9Trackball10ButtonDownENS0_6ButtonEj(ptr noundef nonnull align 8 dereferenceable(597) %29, i32 noundef 16, i32 noundef 0)
  %.pre = load i32, ptr %20, align 8
  br label %30

30:                                               ; preds = %28, %25
  %31 = phi i32 [ %.pre, %28 ], [ %26, %25 ]
  %32 = icmp eq i32 %31, 16777251
  br i1 %32, label %33, label %35

33:                                               ; preds = %30
  %34 = getelementptr inbounds i8, ptr %0, i64 64
  tail call void @_ZN3vcg9Trackball10ButtonDownENS0_6ButtonEj(ptr noundef nonnull align 8 dereferenceable(597) %34, i32 noundef 64, i32 noundef 0)
  br label %35

35:                                               ; preds = %30, %33, %_ZN6GLArea2mmEv.exit
  ret void
}